; Function Attrs: nounwind uwtable
define noundef ptr @LZ4F_createCompressionContext_advanced(ptr noundef readonly byval(%struct.LZ4F_CustomMem) align 8 captures(none) %0, i32 noundef %1) local_unnamed_addr #5 {
  %.sroa.0.0.copyload = load ptr, ptr %0, align 8
  %.sroa.4.0..sroa_idx = getelementptr inbounds nuw i8, ptr %0, i64 8
  %.sroa.4.0.copyload = load ptr, ptr %.sroa.4.0..sroa_idx, align 8
  %.sroa.57.0..sroa_idx = getelementptr inbounds nuw i8, ptr %0, i64 24
  %.sroa.57.0.copyload = load ptr, ptr %.sroa.57.0..sroa_idx, align 8
  %.not.i = icmp eq ptr %.sroa.4.0.copyload, null
  br i1 %.not.i, label %5, label %3

3:                                                ; preds = %2
  %4 = tail call ptr %.sroa.4.0.copyload(ptr noundef %.sroa.57.0.copyload, i64 noundef 216) #13
  br label %LZ4F_calloc.exit

5:                                                ; preds = %2
  %6 = icmp eq ptr %.sroa.0.0.copyload, null
  br i1 %6, label %7, label %9

7:                                                ; preds = %5
  %8 = tail call noalias dereferenceable_or_null(216) ptr @calloc(i64 noundef 1, i64 noundef 216) #15
  br label %LZ4F_calloc.exit

9:                                                ; preds = %5
  %10 = tail call ptr %.sroa.0.0.copyload(ptr noundef %.sroa.57.0.copyload, i64 noundef 216) #13
  %.not10.i = icmp eq ptr %10, null
  br i1 %.not10.i, label %LZ4F_calloc.exit.thread, label %LZ4F_calloc.exit.thread10

LZ4F_calloc.exit.thread10:                        ; preds = %9
  tail call void @llvm.memset.p0.i64(ptr noundef nonnull align 1 dereferenceable(216) %10, i8 0, i64 216, i1 false)
  br label %12

LZ4F_calloc.exit:                                 ; preds = %3, %7
  %.0.i = phi ptr [ %4, %3 ], [ %8, %7 ]
  %11 = icmp eq ptr %.0.i, null
  br i1 %11, label %LZ4F_calloc.exit.thread, label %12

12:                                               ; preds = %LZ4F_calloc.exit.thread10, %LZ4F_calloc.exit
  %.0.i12 = phi ptr [ %10, %LZ4F_calloc.exit.thread10 ], [ %.0.i, %LZ4F_calloc.exit ]
  call void @llvm.memcpy.p0.p0.i64(ptr noundef nonnull align 8 dereferenceable(32) %.0.i12, ptr noundef nonnull align 8 dereferenceable(32) %0, i64 32, i1 false), !tbaa.struct !42
  %13 = getelementptr inbounds nuw i8, ptr %.0.i12, i64 88
  store i32 %1, ptr %13, align 8, !tbaa !35
  %14 = getelementptr inbounds nuw i8, ptr %.0.i12, i64 92
  store i32 0, ptr %14, align 4, !tbaa !32
  br label %LZ4F_calloc.exit.thread

LZ4F_calloc.exit.thread:                          ; preds = %9, %LZ4F_calloc.exit, %12
  %.0 = phi ptr [ %.0.i12, %12 ], [ null, %LZ4F_calloc.exit ], [ null, %9 ]
  ret ptr %.0
}